; Function Attrs: mustprogress uwtable
define hidden noundef zeroext i1 @_ZN4leaneqERKNS_10data_valueES2_(ptr noundef nonnull readonly align 8 captures(none) dereferenceable(8) %0, ptr noundef nonnull readonly align 8 captures(none) dereferenceable(8) %1) local_unnamed_addr #0 {
  %3 = load ptr, ptr %0, align 8, !tbaa !3
  %4 = load ptr, ptr %1, align 8, !tbaa !3
  %5 = icmp eq ptr %3, %4
  br i1 %5, label %28, label %6

6:                                                ; preds = %2
  %7 = ptrtoint ptr %3 to i64
  %8 = and i64 %7, 1
  %.not.i.i = icmp eq i64 %8, 0
  br i1 %.not.i.i, label %9, label %_ZNK4lean10object_ref10to_obj_argEv.exit

9:                                                ; preds = %6
  %.val.i.i.i = load i32, ptr %3, align 4, !tbaa !8
  %10 = icmp sgt i32 %.val.i.i.i, 0
  br i1 %10, label %11, label %13, !prof !11

11:                                               ; preds = %9
  %12 = add nuw nsw i32 %.val.i.i.i, 1
  store i32 %12, ptr %3, align 4, !tbaa !8
  br label %_ZNK4lean10object_ref10to_obj_argEv.exit

13:                                               ; preds = %9
  %.not.i.i.i = icmp eq i32 %.val.i.i.i, 0
  br i1 %.not.i.i.i, label %_ZNK4lean10object_ref10to_obj_argEv.exit, label %14

14:                                               ; preds = %13
  tail call void @lean_inc_ref_cold(ptr noundef nonnull %3)
  %.pre.i = load ptr, ptr %0, align 8, !tbaa !3
  %.pre = load ptr, ptr %1, align 8, !tbaa !3
  br label %_ZNK4lean10object_ref10to_obj_argEv.exit

_ZNK4lean10object_ref10to_obj_argEv.exit:         ; preds = %6, %11, %13, %14
  %15 = phi ptr [ %4, %6 ], [ %4, %11 ], [ %4, %13 ], [ %.pre, %14 ]
  %16 = phi ptr [ %3, %6 ], [ %3, %11 ], [ %3, %13 ], [ %.pre.i, %14 ]
  %17 = ptrtoint ptr %15 to i64
  %18 = and i64 %17, 1
  %.not.i.i5 = icmp eq i64 %18, 0
  br i1 %.not.i.i5, label %19, label %_ZNK4lean10object_ref10to_obj_argEv.exit9

19:                                               ; preds = %_ZNK4lean10object_ref10to_obj_argEv.exit
  %.val.i.i.i6 = load i32, ptr %15, align 4, !tbaa !8
  %20 = icmp sgt i32 %.val.i.i.i6, 0
  br i1 %20, label %21, label %23, !prof !11

21:                                               ; preds = %19
  %22 = add nuw nsw i32 %.val.i.i.i6, 1
  store i32 %22, ptr %15, align 4, !tbaa !8
  br label %_ZNK4lean10object_ref10to_obj_argEv.exit9

23:                                               ; preds = %19
  %.not.i.i.i7 = icmp eq i32 %.val.i.i.i6, 0
  br i1 %.not.i.i.i7, label %_ZNK4lean10object_ref10to_obj_argEv.exit9, label %24

24:                                               ; preds = %23
  tail call void @lean_inc_ref_cold(ptr noundef nonnull %15)
  %.pre.i8 = load ptr, ptr %1, align 8, !tbaa !3
  br label %_ZNK4lean10object_ref10to_obj_argEv.exit9

_ZNK4lean10object_ref10to_obj_argEv.exit9:        ; preds = %_ZNK4lean10object_ref10to_obj_argEv.exit, %21, %23, %24
  %25 = phi ptr [ %15, %_ZNK4lean10object_ref10to_obj_argEv.exit ], [ %15, %21 ], [ %15, %23 ], [ %.pre.i8, %24 ]
  %26 = tail call zeroext i8 @lean_data_value_beq(ptr noundef %16, ptr noundef %25)
  %27 = icmp ne i8 %26, 0
  br label %28

28:                                               ; preds = %2, %_ZNK4lean10object_ref10to_obj_argEv.exit9
  %.0 = phi i1 [ %27, %_ZNK4lean10object_ref10to_obj_argEv.exit9 ], [ true, %2 ]
  ret i1 %.0
}